(dp0
cnumpy.core.multiarray
scalar
p1
(cnumpy
dtype
p2
(S'u1'
p3
I0
I1
tp4
Rp5
(I3
S'|'
p6
NNNI-1
I-1
I0
tp7
bS'\x01'
p8
tp9
Rp10
g1
(g5
S'A'
p11
tp12
Rp13
sg1
(g5
S'\x02'
p14
tp15
Rp16
g1
(g5
S'B'
p17
tp18
Rp19
sg1
(g5
S'\x03'
p20
tp21
Rp22
g1
(g5
S'C'
p23
tp24
Rp25
sg1
(g5
S'\x04'
p26
tp27
Rp28
g1
(g5
S'D'
p29
tp30
Rp31
sg1
(g5
S'\x05'
p32
tp33
Rp34
g1
(g5
S'E'
p35
tp36
Rp37
sg1
(g5
S'\x06'
p38
tp39
Rp40
g1
(g5
S'F'
p41
tp42
Rp43
sg1
(g5
S'\x07'
p44
tp45
Rp46
g1
(g5
S'G'
p47
tp48
Rp49
sg1
(g5
S'\x08'
p50
tp51
Rp52
g1
(g5
S'H'
p53
tp54
Rp55
sg1
(g5
S'\t'
p56
tp57
Rp58
g1
(g5
S'I'
p59
tp60
Rp61
sg1
(g5
S'\n'
p62
tp63
Rp64
g1
(g5
S'J'
p65
tp66
Rp67
sg1
(g5
S'\x0b'
p68
tp69
Rp70
g1
(g5
S'K'
p71
tp72
Rp73
sg1
(g5
S'\x0c'
p74
tp75
Rp76
g1
(g5
S'L'
p77
tp78
Rp79
sg1
(g5
S'\r'
p80
tp81
Rp82
g1
(g5
S'M'
p83
tp84
Rp85
sg1
(g5
S'\x0e'
p86
tp87
Rp88
g1
(g5
S'N'
p89
tp90
Rp91
sg1
(g5
S'\x0f'
p92
tp93
Rp94
g1
(g5
S'O'
p95
tp96
Rp97
sg1
(g5
S'\x10'
p98
tp99
Rp100
g1
(g5
S'P'
p101
tp102
Rp103
sg1
(g5
S'\x11'
p104
tp105
Rp106
g1
(g5
S'Q'
p107
tp108
Rp109
sg1
(g5
S'\x12'
p110
tp111
Rp112
g1
(g5
S'R'
p113
tp114
Rp115
sg1
(g5
S'\x13'
p116
tp117
Rp118
g1
(g5
S'S'
p119
tp120
Rp121
sg1
(g5
S'\x14'
p122
tp123
Rp124
g1
(g5
S'T'
p125
tp126
Rp127
sg1
(g5
S'\x15'
p128
tp129
Rp130
g1
(g5
S'U'
p131
tp132
Rp133
sg1
(g5
S'\x16'
p134
tp135
Rp136
g1
(g5
S'V'
p137
tp138
Rp139
sg1
(g5
S'\x17'
p140
tp141
Rp142
g1
(g5
S'W'
p143
tp144
Rp145
sg1
(g5
S'\x18'
p146
tp147
Rp148
g1
(g5
S'X'
p149
tp150
Rp151
sg1
(g5
S'\x19'
p152
tp153
Rp154
g1
(g5
S'Y'
p155
tp156
Rp157
sg1
(g5
S'\x1a'
p158
tp159
Rp160
g1
(g5
S'Z'
p161
tp162
Rp163
s.